target datalayout = "e-m:e-p270:32:32-p271:32:32-p272:64:64-i64:64-i128:128-f80:128-n8:16:32:64-S128"
target triple = "x86_64-unknown-linux-gnu"

%struct.CPUArchState = type { [32 x i64], [32 x i64], [512 x i64], i64, i64, i64, i64, i64, i8, i64, i64, i64, [32 x i64], i64, %struct.float_status, i64, i64, i64, i64, i64, i64, i32, i32, i32, i32, i32, i64, i64, i32, i64, i64, ptr, ptr, i8, i64, i64, [8 x i8] }
%struct.float_status = type { i16, i8, i8, i8, i8, i8, i8, i8, i8, i8, i8, i8 }

@.str.20 = private unnamed_addr constant [27 x i8] c"../qemu/target/riscv/csr.c\00", align 1
@__func__.read_vtype = private unnamed_addr constant [11 x i8] c"read_vtype\00", align 1

; Function Attrs: nounwind sspstrong uwtable
define internal i32 @read_vtype(ptr noundef %env, i32 noundef %csrno, ptr noundef %val) #0 {
entry:
  %env.addr = alloca ptr, align 8
  %csrno.addr = alloca i32, align 4
  %val.addr = alloca ptr, align 8
  %vill = alloca i64, align 8
  store ptr %env, ptr %env.addr, align 8
  store i32 %csrno, ptr %csrno.addr, align 4
  store ptr %val, ptr %val.addr, align 8
  %0 = load ptr, ptr %env.addr, align 8
  %xl = getelementptr inbounds %struct.CPUArchState, ptr %0, i32 0, i32 25
  %1 = load i32, ptr %xl, align 16
  switch i32 %1, label %sw.default [
    i32 1, label %sw.bb
    i32 2, label %sw.bb3
  ]

sw.bb:                                            ; preds = %entry
  %2 = load ptr, ptr %env.addr, align 8
  %vill1 = getelementptr inbounds %struct.CPUArchState, ptr %2, i32 0, i32 8
  %3 = load i8, ptr %vill1, align 8
  %tobool = trunc i8 %3 to i1
  %conv = zext i1 %tobool to i32
  %shl = shl i32 %conv, 31
  %conv2 = zext i32 %shl to i64
  store i64 %conv2, ptr %vill, align 8
  br label %sw.epilog

sw.bb3:                                           ; preds = %entry
  %4 = load ptr, ptr %env.addr, align 8
  %vill4 = getelementptr inbounds %struct.CPUArchState, ptr %4, i32 0, i32 8
  %5 = load i8, ptr %vill4, align 8
  %tobool5 = trunc i8 %5 to i1
  %conv6 = zext i1 %tobool5 to i64
  %shl7 = shl i64 %conv6, 63
  store i64 %shl7, ptr %vill, align 8
  br label %sw.epilog

sw.default:                                       ; preds = %entry
  br label %do.body

do.body:                                          ; preds = %sw.default
  call void @g_assertion_message_expr(ptr noundef null, ptr noundef @.str.20, i32 noundef 668, ptr noundef @__func__.read_vtype, ptr noundef null) #5
  unreachable

do.end:                                           ; No predecessors!
  br label %sw.epilog

sw.epilog:                                        ; preds = %do.end, %sw.bb3, %sw.bb
  %6 = load i64, ptr %vill, align 8
  %7 = load ptr, ptr %env.addr, align 8
  %vtype = getelementptr inbounds %struct.CPUArchState, ptr %7, i32 0, i32 7
  %8 = load i64, ptr %vtype, align 16
  %or = or i64 %6, %8
  %9 = load ptr, ptr %val.addr, align 8
  store i64 %or, ptr %9, align 8
  ret i32 -1
}