; Function Attrs: nounwind sspstrong uwtable
define internal noundef i32 @read_vtype(ptr noundef readonly captures(none) %env, i32 %csrno, ptr noundef writeonly captures(none) %val) #2 {
entry:
  %xl = getelementptr inbounds nuw i8, ptr %env, i64 5024
  %0 = load i32, ptr %xl, align 16
  switch i32 %0, label %do.body [
    i32 1, label %sw.epilog
    i32 2, label %sw.bb3
  ]

sw.bb3:                                           ; preds = %entry
  br label %sw.epilog

do.body:                                          ; preds = %entry
  tail call void @g_assertion_message_expr(ptr noundef null, ptr noundef nonnull @.str.20, i32 noundef 668, ptr noundef nonnull @__func__.read_vtype, ptr noundef null) #12
  unreachable

sw.epilog:                                        ; preds = %entry, %sw.bb3
  %.sink = phi i64 [ 63, %sw.bb3 ], [ 31, %entry ]
  %vill4 = getelementptr inbounds nuw i8, ptr %env, i64 4648
  %1 = load i8, ptr %vill4, align 8
  %2 = and i8 %1, 1
  %conv6 = zext nneg i8 %2 to i64
  %shl7 = shl nuw i64 %conv6, %.sink
  %vtype = getelementptr inbounds nuw i8, ptr %env, i64 4640
  %3 = load i64, ptr %vtype, align 16
  %or = or i64 %3, %shl7
  store i64 %or, ptr %val, align 8
  ret i32 -1
}